target datalayout = "e-m:e-p270:32:32-p271:32:32-p272:64:64-i64:64-i128:128-f80:128-n8:16:32:64-S128"
target triple = "x86_64-pc-linux-gnu"

%struct.code = type { i8, i8, i16 }
%struct.z_stream_s = type { ptr, i32, i64, ptr, i32, i64, ptr, ptr, ptr, ptr, ptr, i32, i64, i64 }
%struct.inflate_state = type { ptr, i32, i32, i32, i32, i32, i32, i64, i64, ptr, i32, i32, i32, i32, ptr, i64, i32, i32, i32, i32, ptr, ptr, i32, i32, i32, i32, i32, i32, ptr, [320 x i16], [288 x i16], [1444 x %struct.code], i32, i32, i32 }

; Function Attrs: nounwind uwtable
define internal i32 @inflateStateCheck(ptr noundef %0) #0 {
  %2 = alloca i32, align 4
  %3 = alloca ptr, align 8
  %4 = alloca ptr, align 8
  %5 = alloca i32, align 4
  store ptr %0, ptr %3, align 8, !tbaa !3
  call void @llvm.lifetime.start.p0(i64 8, ptr %4) #4
  %6 = load ptr, ptr %3, align 8, !tbaa !3
  %7 = icmp eq ptr %6, null
  br i1 %7, label %18, label %8

8:                                                ; preds = %1
  %9 = load ptr, ptr %3, align 8, !tbaa !3
  %10 = getelementptr inbounds nuw %struct.z_stream_s, ptr %9, i32 0, i32 8
  %11 = load ptr, ptr %10, align 8, !tbaa !37
  %12 = icmp eq ptr %11, null
  br i1 %12, label %18, label %13

13:                                               ; preds = %8
  %14 = load ptr, ptr %3, align 8, !tbaa !3
  %15 = getelementptr inbounds nuw %struct.z_stream_s, ptr %14, i32 0, i32 9
  %16 = load ptr, ptr %15, align 8, !tbaa !38
  %17 = icmp eq ptr %16, null
  br i1 %17, label %18, label %19

18:                                               ; preds = %13, %8, %1
  store i32 1, ptr %2, align 4
  store i32 1, ptr %5, align 4
  br label %43

19:                                               ; preds = %13
  %20 = load ptr, ptr %3, align 8, !tbaa !3
  %21 = getelementptr inbounds nuw %struct.z_stream_s, ptr %20, i32 0, i32 7
  %22 = load ptr, ptr %21, align 8, !tbaa !8
  store ptr %22, ptr %4, align 8, !tbaa !14
  %23 = load ptr, ptr %4, align 8, !tbaa !14
  %24 = icmp eq ptr %23, null
  br i1 %24, label %41, label %25

25:                                               ; preds = %19
  %26 = load ptr, ptr %4, align 8, !tbaa !14
  %27 = getelementptr inbounds nuw %struct.inflate_state, ptr %26, i32 0, i32 0
  %28 = load ptr, ptr %27, align 8, !tbaa !39
  %29 = load ptr, ptr %3, align 8, !tbaa !3
  %30 = icmp ne ptr %28, %29
  br i1 %30, label %41, label %31

31:                                               ; preds = %25
  %32 = load ptr, ptr %4, align 8, !tbaa !14
  %33 = getelementptr inbounds nuw %struct.inflate_state, ptr %32, i32 0, i32 1
  %34 = load i32, ptr %33, align 8, !tbaa !24
  %35 = icmp ult i32 %34, 16180
  br i1 %35, label %41, label %36

36:                                               ; preds = %31
  %37 = load ptr, ptr %4, align 8, !tbaa !14
  %38 = getelementptr inbounds nuw %struct.inflate_state, ptr %37, i32 0, i32 1
  %39 = load i32, ptr %38, align 8, !tbaa !24
  %40 = icmp ugt i32 %39, 16211
  br i1 %40, label %41, label %42

41:                                               ; preds = %36, %31, %25, %19
  store i32 1, ptr %2, align 4
  store i32 1, ptr %5, align 4
  br label %43

42:                                               ; preds = %36
  store i32 0, ptr %2, align 4
  store i32 1, ptr %5, align 4
  br label %43

43:                                               ; preds = %42, %41, %18
  call void @llvm.lifetime.end.p0(i64 8, ptr %4) #4
  %44 = load i32, ptr %2, align 4
  ret i32 %44
}

; Function Attrs: nounwind uwtable
define i32 @inflateCopy(ptr noundef %0, ptr noundef %1) #0 {
  %3 = alloca i32, align 4
  %4 = alloca ptr, align 8
  %5 = alloca ptr, align 8
  %6 = alloca ptr, align 8
  %7 = alloca ptr, align 8
  %8 = alloca ptr, align 8
  %9 = alloca i32, align 4
  %10 = alloca i32, align 4
  store ptr %0, ptr %4, align 8, !tbaa !3
  store ptr %1, ptr %5, align 8, !tbaa !3
  call void @llvm.lifetime.start.p0(i64 8, ptr %6) #4
  call void @llvm.lifetime.start.p0(i64 8, ptr %7) #4
  call void @llvm.lifetime.start.p0(i64 8, ptr %8) #4
  call void @llvm.lifetime.start.p0(i64 4, ptr %9) #4
  %11 = load ptr, ptr %5, align 8, !tbaa !3
  %12 = call i32 @inflateStateCheck(ptr noundef %11)
  %13 = icmp ne i32 %12, 0
  br i1 %13, label %17, label %14

14:                                               ; preds = %2
  %15 = load ptr, ptr %4, align 8, !tbaa !3
  %16 = icmp eq ptr %15, null
  br i1 %16, label %17, label %18

17:                                               ; preds = %14, %2
  store i32 -2, ptr %3, align 4
  store i32 1, ptr %10, align 4
  br label %155

18:                                               ; preds = %14
  %19 = load ptr, ptr %5, align 8, !tbaa !3
  %20 = getelementptr inbounds nuw %struct.z_stream_s, ptr %19, i32 0, i32 7
  %21 = load ptr, ptr %20, align 8, !tbaa !8
  store ptr %21, ptr %6, align 8, !tbaa !14
  %22 = load ptr, ptr %5, align 8, !tbaa !3
  %23 = getelementptr inbounds nuw %struct.z_stream_s, ptr %22, i32 0, i32 8
  %24 = load ptr, ptr %23, align 8, !tbaa !37
  %25 = load ptr, ptr %5, align 8, !tbaa !3
  %26 = getelementptr inbounds nuw %struct.z_stream_s, ptr %25, i32 0, i32 10
  %27 = load ptr, ptr %26, align 8, !tbaa !46
  %28 = call ptr %24(ptr noundef %27, i32 noundef 1, i32 noundef 7160)
  store ptr %28, ptr %7, align 8, !tbaa !14
  %29 = load ptr, ptr %7, align 8, !tbaa !14
  %30 = icmp eq ptr %29, null
  br i1 %30, label %31, label %32

31:                                               ; preds = %18
  store i32 -4, ptr %3, align 4
  store i32 1, ptr %10, align 4
  br label %155

32:                                               ; preds = %18
  store ptr null, ptr %8, align 8, !tbaa !47
  %33 = load ptr, ptr %6, align 8, !tbaa !14
  %34 = getelementptr inbounds nuw %struct.inflate_state, ptr %33, i32 0, i32 14
  %35 = load ptr, ptr %34, align 8, !tbaa !44
  %36 = icmp ne ptr %35, null
  br i1 %36, label %37, label %60

37:                                               ; preds = %32
  %38 = load ptr, ptr %5, align 8, !tbaa !3
  %39 = getelementptr inbounds nuw %struct.z_stream_s, ptr %38, i32 0, i32 8
  %40 = load ptr, ptr %39, align 8, !tbaa !37
  %41 = load ptr, ptr %5, align 8, !tbaa !3
  %42 = getelementptr inbounds nuw %struct.z_stream_s, ptr %41, i32 0, i32 10
  %43 = load ptr, ptr %42, align 8, !tbaa !46
  %44 = load ptr, ptr %6, align 8, !tbaa !14
  %45 = getelementptr inbounds nuw %struct.inflate_state, ptr %44, i32 0, i32 10
  %46 = load i32, ptr %45, align 8, !tbaa !45
  %47 = shl i32 1, %46
  %48 = call ptr %40(ptr noundef %43, i32 noundef %47, i32 noundef 1)
  store ptr %48, ptr %8, align 8, !tbaa !47
  %49 = load ptr, ptr %8, align 8, !tbaa !47
  %50 = icmp eq ptr %49, null
  br i1 %50, label %51, label %59

51:                                               ; preds = %37
  %52 = load ptr, ptr %5, align 8, !tbaa !3
  %53 = getelementptr inbounds nuw %struct.z_stream_s, ptr %52, i32 0, i32 9
  %54 = load ptr, ptr %53, align 8, !tbaa !38
  %55 = load ptr, ptr %5, align 8, !tbaa !3
  %56 = getelementptr inbounds nuw %struct.z_stream_s, ptr %55, i32 0, i32 10
  %57 = load ptr, ptr %56, align 8, !tbaa !46
  %58 = load ptr, ptr %7, align 8, !tbaa !14
  call void %54(ptr noundef %57, ptr noundef %58)
  store i32 -4, ptr %3, align 4
  store i32 1, ptr %10, align 4
  br label %155

59:                                               ; preds = %37
  br label %60

60:                                               ; preds = %59, %32
  %61 = load ptr, ptr %4, align 8, !tbaa !3
  %62 = load ptr, ptr %5, align 8, !tbaa !3
  call void @llvm.memcpy.p0.p0.i64(ptr align 1 %61, ptr align 1 %62, i64 112, i1 false)
  %63 = load ptr, ptr %7, align 8, !tbaa !14
  %64 = load ptr, ptr %6, align 8, !tbaa !14
  call void @llvm.memcpy.p0.p0.i64(ptr align 1 %63, ptr align 1 %64, i64 7160, i1 false)
  %65 = load ptr, ptr %4, align 8, !tbaa !3
  %66 = load ptr, ptr %7, align 8, !tbaa !14
  %67 = getelementptr inbounds nuw %struct.inflate_state, ptr %66, i32 0, i32 0
  store ptr %65, ptr %67, align 8, !tbaa !39
  %68 = load ptr, ptr %6, align 8, !tbaa !14
  %69 = getelementptr inbounds nuw %struct.inflate_state, ptr %68, i32 0, i32 20
  %70 = load ptr, ptr %69, align 8, !tbaa !34
  %71 = load ptr, ptr %6, align 8, !tbaa !14
  %72 = getelementptr inbounds nuw %struct.inflate_state, ptr %71, i32 0, i32 31
  %73 = getelementptr inbounds [1444 x %struct.code], ptr %72, i64 0, i64 0
  %74 = icmp uge ptr %70, %73
  br i1 %74, label %75, label %118

75:                                               ; preds = %60
  %76 = load ptr, ptr %6, align 8, !tbaa !14
  %77 = getelementptr inbounds nuw %struct.inflate_state, ptr %76, i32 0, i32 20
  %78 = load ptr, ptr %77, align 8, !tbaa !34
  %79 = load ptr, ptr %6, align 8, !tbaa !14
  %80 = getelementptr inbounds nuw %struct.inflate_state, ptr %79, i32 0, i32 31
  %81 = getelementptr inbounds [1444 x %struct.code], ptr %80, i64 0, i64 0
  %82 = getelementptr inbounds %struct.code, ptr %81, i64 1444
  %83 = getelementptr inbounds %struct.code, ptr %82, i64 -1
  %84 = icmp ule ptr %78, %83
  br i1 %84, label %85, label %118

85:                                               ; preds = %75
  %86 = load ptr, ptr %7, align 8, !tbaa !14
  %87 = getelementptr inbounds nuw %struct.inflate_state, ptr %86, i32 0, i32 31
  %88 = getelementptr inbounds [1444 x %struct.code], ptr %87, i64 0, i64 0
  %89 = load ptr, ptr %6, align 8, !tbaa !14
  %90 = getelementptr inbounds nuw %struct.inflate_state, ptr %89, i32 0, i32 20
  %91 = load ptr, ptr %90, align 8, !tbaa !34
  %92 = load ptr, ptr %6, align 8, !tbaa !14
  %93 = getelementptr inbounds nuw %struct.inflate_state, ptr %92, i32 0, i32 31
  %94 = getelementptr inbounds [1444 x %struct.code], ptr %93, i64 0, i64 0
  %95 = ptrtoint ptr %91 to i64
  %96 = ptrtoint ptr %94 to i64
  %97 = sub i64 %95, %96
  %98 = sdiv exact i64 %97, 4
  %99 = getelementptr inbounds %struct.code, ptr %88, i64 %98
  %100 = load ptr, ptr %7, align 8, !tbaa !14
  %101 = getelementptr inbounds nuw %struct.inflate_state, ptr %100, i32 0, i32 20
  store ptr %99, ptr %101, align 8, !tbaa !34
  %102 = load ptr, ptr %7, align 8, !tbaa !14
  %103 = getelementptr inbounds nuw %struct.inflate_state, ptr %102, i32 0, i32 31
  %104 = getelementptr inbounds [1444 x %struct.code], ptr %103, i64 0, i64 0
  %105 = load ptr, ptr %6, align 8, !tbaa !14
  %106 = getelementptr inbounds nuw %struct.inflate_state, ptr %105, i32 0, i32 21
  %107 = load ptr, ptr %106, align 8, !tbaa !33
  %108 = load ptr, ptr %6, align 8, !tbaa !14
  %109 = getelementptr inbounds nuw %struct.inflate_state, ptr %108, i32 0, i32 31
  %110 = getelementptr inbounds [1444 x %struct.code], ptr %109, i64 0, i64 0
  %111 = ptrtoint ptr %107 to i64
  %112 = ptrtoint ptr %110 to i64
  %113 = sub i64 %111, %112
  %114 = sdiv exact i64 %113, 4
  %115 = getelementptr inbounds %struct.code, ptr %104, i64 %114
  %116 = load ptr, ptr %7, align 8, !tbaa !14
  %117 = getelementptr inbounds nuw %struct.inflate_state, ptr %116, i32 0, i32 21
  store ptr %115, ptr %117, align 8, !tbaa !33
  br label %118

118:                                              ; preds = %85, %75, %60
  %119 = load ptr, ptr %7, align 8, !tbaa !14
  %120 = getelementptr inbounds nuw %struct.inflate_state, ptr %119, i32 0, i32 31
  %121 = getelementptr inbounds [1444 x %struct.code], ptr %120, i64 0, i64 0
  %122 = load ptr, ptr %6, align 8, !tbaa !14
  %123 = getelementptr inbounds nuw %struct.inflate_state, ptr %122, i32 0, i32 28
  %124 = load ptr, ptr %123, align 8, !tbaa !32
  %125 = load ptr, ptr %6, align 8, !tbaa !14
  %126 = getelementptr inbounds nuw %struct.inflate_state, ptr %125, i32 0, i32 31
  %127 = getelementptr inbounds [1444 x %struct.code], ptr %126, i64 0, i64 0
  %128 = ptrtoint ptr %124 to i64
  %129 = ptrtoint ptr %127 to i64
  %130 = sub i64 %128, %129
  %131 = sdiv exact i64 %130, 4
  %132 = getelementptr inbounds %struct.code, ptr %121, i64 %131
  %133 = load ptr, ptr %7, align 8, !tbaa !14
  %134 = getelementptr inbounds nuw %struct.inflate_state, ptr %133, i32 0, i32 28
  store ptr %132, ptr %134, align 8, !tbaa !32
  %135 = load ptr, ptr %8, align 8, !tbaa !47
  %136 = icmp ne ptr %135, null
  br i1 %136, label %137, label %148

137:                                              ; preds = %118
  %138 = load ptr, ptr %6, align 8, !tbaa !14
  %139 = getelementptr inbounds nuw %struct.inflate_state, ptr %138, i32 0, i32 10
  %140 = load i32, ptr %139, align 8, !tbaa !45
  %141 = shl i32 1, %140
  store i32 %141, ptr %9, align 4, !tbaa !43
  %142 = load ptr, ptr %8, align 8, !tbaa !47
  %143 = load ptr, ptr %6, align 8, !tbaa !14
  %144 = getelementptr inbounds nuw %struct.inflate_state, ptr %143, i32 0, i32 14
  %145 = load ptr, ptr %144, align 8, !tbaa !44
  %146 = load i32, ptr %9, align 4, !tbaa !43
  %147 = zext i32 %146 to i64
  call void @llvm.memcpy.p0.p0.i64(ptr align 1 %142, ptr align 1 %145, i64 %147, i1 false)
  br label %148

148:                                              ; preds = %137, %118
  %149 = load ptr, ptr %8, align 8, !tbaa !47
  %150 = load ptr, ptr %7, align 8, !tbaa !14
  %151 = getelementptr inbounds nuw %struct.inflate_state, ptr %150, i32 0, i32 14
  store ptr %149, ptr %151, align 8, !tbaa !44
  %152 = load ptr, ptr %7, align 8, !tbaa !14
  %153 = load ptr, ptr %4, align 8, !tbaa !3
  %154 = getelementptr inbounds nuw %struct.z_stream_s, ptr %153, i32 0, i32 7
  store ptr %152, ptr %154, align 8, !tbaa !8
  store i32 0, ptr %3, align 4
  store i32 1, ptr %10, align 4
  br label %155

155:                                              ; preds = %148, %51, %31, %17
  call void @llvm.lifetime.end.p0(i64 4, ptr %9) #4
  call void @llvm.lifetime.end.p0(i64 8, ptr %8) #4
  call void @llvm.lifetime.end.p0(i64 8, ptr %7) #4
  call void @llvm.lifetime.end.p0(i64 8, ptr %6) #4
  %156 = load i32, ptr %3, align 4
  ret i32 %156
}