; Function Attrs: nounwind uwtable
define range(i32 -4, 1) i32 @inflateCopy(ptr noundef %0, ptr noundef readonly captures(address) %1) local_unnamed_addr #2 {
  %3 = icmp eq ptr %1, null
  br i1 %3, label %inflateStateCheck.exit.thread, label %4

4:                                                ; preds = %2
  %5 = getelementptr inbounds nuw i8, ptr %1, i64 64
  %6 = load ptr, ptr %5, align 8, !tbaa !3
  %7 = icmp eq ptr %6, null
  br i1 %7, label %inflateStateCheck.exit.thread, label %8

8:                                                ; preds = %4
  %9 = getelementptr inbounds nuw i8, ptr %1, i64 72
  %10 = load ptr, ptr %9, align 8, !tbaa !12
  %11 = icmp eq ptr %10, null
  br i1 %11, label %inflateStateCheck.exit.thread, label %12

12:                                               ; preds = %8
  %13 = getelementptr inbounds nuw i8, ptr %1, i64 56
  %14 = load ptr, ptr %13, align 8, !tbaa !13
  %15 = icmp eq ptr %14, null
  br i1 %15, label %inflateStateCheck.exit.thread, label %16

16:                                               ; preds = %12
  %17 = load ptr, ptr %14, align 8, !tbaa !14
  %.not.i = icmp eq ptr %17, %1
  br i1 %.not.i, label %inflateStateCheck.exit, label %inflateStateCheck.exit.thread

inflateStateCheck.exit:                           ; preds = %16
  %18 = getelementptr inbounds nuw i8, ptr %14, i64 8
  %19 = load i32, ptr %18, align 8, !tbaa !18
  %20 = add i32 %19, -16212
  %or.cond.i = icmp ult i32 %20, -32
  %21 = icmp eq ptr %0, null
  %or.cond = or i1 %21, %or.cond.i
  br i1 %or.cond, label %inflateStateCheck.exit.thread, label %22

22:                                               ; preds = %inflateStateCheck.exit
  %23 = getelementptr inbounds nuw i8, ptr %1, i64 80
  %24 = load ptr, ptr %23, align 8, !tbaa !40
  %25 = tail call ptr %6(ptr noundef %24, i32 noundef 1, i32 noundef 7160) #9
  %26 = icmp eq ptr %25, null
  br i1 %26, label %inflateStateCheck.exit.thread, label %27

27:                                               ; preds = %22
  %28 = getelementptr inbounds nuw i8, ptr %14, i64 72
  %29 = load ptr, ptr %28, align 8, !tbaa !38
  %.not = icmp eq ptr %29, null
  br i1 %.not, label %41, label %30

30:                                               ; preds = %27
  %31 = load ptr, ptr %5, align 8, !tbaa !3
  %32 = load ptr, ptr %23, align 8, !tbaa !40
  %33 = getelementptr inbounds nuw i8, ptr %14, i64 56
  %34 = load i32, ptr %33, align 8, !tbaa !39
  %35 = shl nuw i32 1, %34
  %36 = tail call ptr %31(ptr noundef %32, i32 noundef %35, i32 noundef 1) #9
  %37 = icmp eq ptr %36, null
  br i1 %37, label %38, label %41

38:                                               ; preds = %30
  %39 = load ptr, ptr %9, align 8, !tbaa !12
  %40 = load ptr, ptr %23, align 8, !tbaa !40
  tail call void %39(ptr noundef %40, ptr noundef nonnull %25) #9
  br label %inflateStateCheck.exit.thread

41:                                               ; preds = %30, %27
  %.046 = phi ptr [ %36, %30 ], [ null, %27 ]
  tail call void @llvm.memcpy.p0.p0.i64(ptr noundef nonnull align 1 dereferenceable(112) %0, ptr noundef nonnull align 1 dereferenceable(112) %1, i64 112, i1 false)
  tail call void @llvm.memcpy.p0.p0.i64(ptr noundef nonnull align 1 dereferenceable(7160) %25, ptr noundef nonnull align 1 dereferenceable(7160) %14, i64 7160, i1 false)
  store ptr %0, ptr %25, align 8, !tbaa !14
  %42 = getelementptr inbounds nuw i8, ptr %14, i64 104
  %43 = load ptr, ptr %42, align 8, !tbaa !32
  %44 = getelementptr inbounds nuw i8, ptr %14, i64 1368
  %.not52 = icmp ult ptr %43, %44
  %45 = getelementptr inbounds nuw i8, ptr %14, i64 7140
  %.not53 = icmp ugt ptr %43, %45
  %or.cond55 = select i1 %.not52, i1 true, i1 %.not53
  br i1 %or.cond55, label %._crit_edge, label %46

._crit_edge:                                      ; preds = %41
  %.pre = ptrtoint ptr %44 to i64
  br label %59

46:                                               ; preds = %41
  %47 = getelementptr inbounds nuw i8, ptr %25, i64 1368
  %48 = ptrtoint ptr %43 to i64
  %49 = ptrtoint ptr %44 to i64
  %50 = sub i64 %48, %49
  %51 = getelementptr inbounds i8, ptr %47, i64 %50
  %52 = getelementptr inbounds nuw i8, ptr %25, i64 104
  store ptr %51, ptr %52, align 8, !tbaa !32
  %53 = getelementptr inbounds nuw i8, ptr %14, i64 112
  %54 = load ptr, ptr %53, align 8, !tbaa !31
  %55 = ptrtoint ptr %54 to i64
  %56 = sub i64 %55, %49
  %57 = getelementptr inbounds i8, ptr %47, i64 %56
  %58 = getelementptr inbounds nuw i8, ptr %25, i64 112
  store ptr %57, ptr %58, align 8, !tbaa !31
  br label %59

59:                                               ; preds = %._crit_edge, %46
  %.pre-phi = phi i64 [ %.pre, %._crit_edge ], [ %49, %46 ]
  %60 = getelementptr inbounds nuw i8, ptr %25, i64 1368
  %61 = getelementptr inbounds nuw i8, ptr %14, i64 144
  %62 = load ptr, ptr %61, align 8, !tbaa !30
  %63 = ptrtoint ptr %62 to i64
  %64 = sub i64 %63, %.pre-phi
  %65 = getelementptr inbounds i8, ptr %60, i64 %64
  %66 = getelementptr inbounds nuw i8, ptr %25, i64 144
  store ptr %65, ptr %66, align 8, !tbaa !30
  %.not54 = icmp eq ptr %.046, null
  br i1 %.not54, label %73, label %67

67:                                               ; preds = %59
  %68 = getelementptr inbounds nuw i8, ptr %14, i64 56
  %69 = load i32, ptr %68, align 8, !tbaa !39
  %70 = shl nuw i32 1, %69
  %71 = load ptr, ptr %28, align 8, !tbaa !38
  %72 = zext i32 %70 to i64
  tail call void @llvm.memcpy.p0.p0.i64(ptr noundef nonnull align 1 dereferenceable(1) %.046, ptr noundef nonnull align 1 dereferenceable(1) %71, i64 %72, i1 false)
  br label %73

73:                                               ; preds = %67, %59
  %74 = getelementptr inbounds nuw i8, ptr %25, i64 72
  store ptr %.046, ptr %74, align 8, !tbaa !38
  %75 = getelementptr inbounds nuw i8, ptr %0, i64 56
  store ptr %25, ptr %75, align 8, !tbaa !13
  br label %inflateStateCheck.exit.thread

inflateStateCheck.exit.thread:                    ; preds = %12, %16, %2, %4, %8, %22, %inflateStateCheck.exit, %73, %38
  %.0 = phi i32 [ -4, %38 ], [ 0, %73 ], [ -2, %inflateStateCheck.exit ], [ -4, %22 ], [ -2, %8 ], [ -2, %4 ], [ -2, %2 ], [ -2, %16 ], [ -2, %12 ]
  ret i32 %.0
}